target datalayout = "e-m:e-p270:32:32-p271:32:32-p272:64:64-i64:64-i128:128-f80:128-n8:16:32:64-S128"
target triple = "x86_64-pc-linux-gnu"

%struct.jit_State = type { %struct.GCtrace, ptr, ptr, ptr, ptr, ptr, ptr, i32, i32, i32, i8, i8, %struct.IRType1, i8, %struct.FoldState, ptr, i32, i32, i32, i32, i32, i32, i32, [1 x i32], [5 x %union.TValue], [3 x %union.TValue], ptr, i32, i32, i32, i32, ptr, ptr, i32, i32, i8, ptr, i32, i32, i16, [101 x i16], [258 x i32], [15 x i32], [16 x ptr], [64 x %struct.HotPenalty], i32, [16 x %struct.BPropEntry], i32, %struct.ScEvEntry, ptr, i32, i32, i32, ptr, i32, i32, ptr, ptr, ptr, i64, i64, %union.TValue, ptr, i32, i32 }
%struct.GCtrace = type { %struct.GCRef, i8, i8, i16, i32, i32, %struct.GCRef, ptr, i32, i32, ptr, ptr, %struct.GCRef, %struct.MRef, i32, i32, ptr, i32, i16, i16, i16, i16, i16, i16, i16, i8, i8, i8, i8 }
%struct.GCRef = type { i64 }
%struct.MRef = type { i64 }
%struct.IRType1 = type { i8 }
%struct.FoldState = type { %union.IRIns, [2 x %union.IRIns], [2 x %union.IRIns] }
%union.IRIns = type { %struct.GCRef }
%struct.HotPenalty = type { %struct.MRef, i16, i16 }
%struct.BPropEntry = type { i16, i16, i32 }
%struct.ScEvEntry = type { %struct.MRef, i16, i16, i16, i16, %struct.IRType1, i8 }
%union.TValue = type { i64 }
%struct.anon = type { i16, i16, i16, i16 }
%struct.anon.0 = type { i32, %struct.IRType1, i8, i8, i8 }

; Function Attrs: nounwind uwtable
define hidden i32 @lj_opt_fwd_wasnonnil(ptr noundef %0, i16 noundef zeroext %1, i32 noundef %2) #0 {
  %4 = alloca i32, align 4
  %5 = alloca ptr, align 8
  %6 = alloca i16, align 2
  %7 = alloca i32, align 4
  %8 = alloca i32, align 4
  %9 = alloca ptr, align 8
  %10 = alloca i32, align 4
  %11 = alloca i32, align 4
  %12 = alloca i32, align 4
  %13 = alloca ptr, align 8
  store ptr %0, ptr %5, align 8, !tbaa !4
  store i16 %1, ptr %6, align 2, !tbaa !12
  store i32 %2, ptr %7, align 4, !tbaa !9
  call void @llvm.lifetime.start.p0(i64 4, ptr %8) #5
  %14 = load ptr, ptr %5, align 8, !tbaa !4
  %15 = getelementptr inbounds nuw %struct.jit_State, ptr %14, i32 0, i32 40
  %16 = load i16, ptr %6, align 2, !tbaa !12
  %17 = zext i16 %16 to i32
  %18 = add nsw i32 %17, 8
  %19 = sext i32 %18 to i64
  %20 = getelementptr inbounds [101 x i16], ptr %15, i64 0, i64 %19
  %21 = load i16, ptr %20, align 2, !tbaa !12
  %22 = zext i16 %21 to i32
  store i32 %22, ptr %8, align 4, !tbaa !9
  br label %23

23:                                               ; preds = %167, %3
  %24 = load i32, ptr %8, align 4, !tbaa !9
  %25 = load i32, ptr %7, align 4, !tbaa !9
  %26 = icmp ugt i32 %24, %25
  br i1 %26, label %27, label %168

27:                                               ; preds = %23
  call void @llvm.lifetime.start.p0(i64 8, ptr %9) #5
  %28 = load ptr, ptr %5, align 8, !tbaa !4
  %29 = getelementptr inbounds nuw %struct.jit_State, ptr %28, i32 0, i32 0
  %30 = getelementptr inbounds nuw %struct.GCtrace, ptr %29, i32 0, i32 7
  %31 = load ptr, ptr %30, align 8, !tbaa !14
  %32 = load i32, ptr %8, align 4, !tbaa !9
  %33 = zext i32 %32 to i64
  %34 = getelementptr inbounds nuw %union.IRIns, ptr %31, i64 %33
  store ptr %34, ptr %9, align 8, !tbaa !32
  %35 = load ptr, ptr %9, align 8, !tbaa !32
  %36 = getelementptr inbounds nuw %struct.anon, ptr %35, i32 0, i32 0
  %37 = load i16, ptr %36, align 8, !tbaa !11
  %38 = zext i16 %37 to i32
  %39 = load i32, ptr %7, align 4, !tbaa !9
  %40 = icmp eq i32 %38, %39
  br i1 %40, label %41, label %51

41:                                               ; preds = %27
  %42 = load ptr, ptr %9, align 8, !tbaa !32
  %43 = getelementptr inbounds nuw %struct.anon.0, ptr %42, i32 0, i32 1
  %44 = getelementptr inbounds nuw %struct.IRType1, ptr %43, i32 0, i32 0
  %45 = load i8, ptr %44, align 4, !tbaa !11
  %46 = zext i8 %45 to i32
  %47 = and i32 %46, 31
  %48 = icmp eq i32 %47, 0
  %49 = xor i1 %48, true
  %50 = zext i1 %49 to i32
  store i32 %50, ptr %4, align 4
  store i32 1, ptr %10, align 4
  br label %165

51:                                               ; preds = %27
  %52 = load ptr, ptr %9, align 8, !tbaa !32
  %53 = getelementptr inbounds nuw %struct.anon.0, ptr %52, i32 0, i32 1
  %54 = getelementptr inbounds nuw %struct.IRType1, ptr %53, i32 0, i32 0
  %55 = load i8, ptr %54, align 4, !tbaa !11
  %56 = zext i8 %55 to i32
  %57 = and i32 %56, 31
  %58 = icmp eq i32 %57, 0
  br i1 %58, label %59, label %159

59:                                               ; preds = %51
  call void @llvm.lifetime.start.p0(i64 4, ptr %11) #5
  %60 = load ptr, ptr %5, align 8, !tbaa !4
  %61 = getelementptr inbounds nuw %struct.jit_State, ptr %60, i32 0, i32 0
  %62 = getelementptr inbounds nuw %struct.GCtrace, ptr %61, i32 0, i32 7
  %63 = load ptr, ptr %62, align 8, !tbaa !14
  %64 = load ptr, ptr %9, align 8, !tbaa !32
  %65 = getelementptr inbounds nuw %struct.anon, ptr %64, i32 0, i32 0
  %66 = load i16, ptr %65, align 8, !tbaa !11
  %67 = zext i16 %66 to i64
  %68 = getelementptr inbounds nuw %union.IRIns, ptr %63, i64 %67
  %69 = getelementptr inbounds nuw %struct.anon, ptr %68, i32 0, i32 1
  %70 = load i16, ptr %69, align 2, !tbaa !11
  %71 = zext i16 %70 to i32
  store i32 %71, ptr %11, align 4, !tbaa !9
  call void @llvm.lifetime.start.p0(i64 4, ptr %12) #5
  %72 = load ptr, ptr %5, align 8, !tbaa !4
  %73 = getelementptr inbounds nuw %struct.jit_State, ptr %72, i32 0, i32 0
  %74 = getelementptr inbounds nuw %struct.GCtrace, ptr %73, i32 0, i32 7
  %75 = load ptr, ptr %74, align 8, !tbaa !14
  %76 = load i32, ptr %7, align 4, !tbaa !9
  %77 = zext i32 %76 to i64
  %78 = getelementptr inbounds nuw %union.IRIns, ptr %75, i64 %77
  %79 = getelementptr inbounds nuw %struct.anon, ptr %78, i32 0, i32 1
  %80 = load i16, ptr %79, align 2, !tbaa !11
  %81 = zext i16 %80 to i32
  store i32 %81, ptr %12, align 4, !tbaa !9
  %82 = load i16, ptr %6, align 2, !tbaa !12
  %83 = zext i16 %82 to i32
  %84 = icmp eq i32 %83, 66
  br i1 %84, label %111, label %85

85:                                               ; preds = %59
  %86 = load ptr, ptr %5, align 8, !tbaa !4
  %87 = getelementptr inbounds nuw %struct.jit_State, ptr %86, i32 0, i32 0
  %88 = getelementptr inbounds nuw %struct.GCtrace, ptr %87, i32 0, i32 7
  %89 = load ptr, ptr %88, align 8, !tbaa !14
  %90 = load i32, ptr %11, align 4, !tbaa !9
  %91 = zext i32 %90 to i64
  %92 = getelementptr inbounds nuw %union.IRIns, ptr %89, i64 %91
  %93 = getelementptr inbounds nuw %struct.anon.0, ptr %92, i32 0, i32 1
  %94 = getelementptr inbounds nuw %struct.IRType1, ptr %93, i32 0, i32 0
  %95 = load i8, ptr %94, align 4, !tbaa !11
  %96 = zext i8 %95 to i32
  %97 = load ptr, ptr %5, align 8, !tbaa !4
  %98 = getelementptr inbounds nuw %struct.jit_State, ptr %97, i32 0, i32 0
  %99 = getelementptr inbounds nuw %struct.GCtrace, ptr %98, i32 0, i32 7
  %100 = load ptr, ptr %99, align 8, !tbaa !14
  %101 = load i32, ptr %12, align 4, !tbaa !9
  %102 = zext i32 %101 to i64
  %103 = getelementptr inbounds nuw %union.IRIns, ptr %100, i64 %102
  %104 = getelementptr inbounds nuw %struct.anon.0, ptr %103, i32 0, i32 1
  %105 = getelementptr inbounds nuw %struct.IRType1, ptr %104, i32 0, i32 0
  %106 = load i8, ptr %105, align 4, !tbaa !11
  %107 = zext i8 %106 to i32
  %108 = xor i32 %96, %107
  %109 = and i32 %108, 31
  %110 = icmp eq i32 %109, 0
  br i1 %110, label %111, label %123

111:                                              ; preds = %85, %59
  %112 = load i32, ptr %11, align 4, !tbaa !9
  %113 = load i32, ptr %12, align 4, !tbaa !9
  %114 = icmp eq i32 %112, %113
  br i1 %114, label %121, label %115

115:                                              ; preds = %111
  %116 = load i32, ptr %11, align 4, !tbaa !9
  %117 = icmp ult i32 %116, 32768
  br i1 %117, label %118, label %121

118:                                              ; preds = %115
  %119 = load i32, ptr %12, align 4, !tbaa !9
  %120 = icmp ult i32 %119, 32768
  br i1 %120, label %122, label %121

121:                                              ; preds = %118, %115, %111
  store i32 0, ptr %4, align 4
  store i32 1, ptr %10, align 4
  br label %156

122:                                              ; preds = %118
  br label %155

123:                                              ; preds = %85
  %124 = load ptr, ptr %5, align 8, !tbaa !4
  %125 = getelementptr inbounds nuw %struct.jit_State, ptr %124, i32 0, i32 0
  %126 = getelementptr inbounds nuw %struct.GCtrace, ptr %125, i32 0, i32 7
  %127 = load ptr, ptr %126, align 8, !tbaa !14
  %128 = load i32, ptr %11, align 4, !tbaa !9
  %129 = zext i32 %128 to i64
  %130 = getelementptr inbounds nuw %union.IRIns, ptr %127, i64 %129
  %131 = getelementptr inbounds nuw %struct.anon.0, ptr %130, i32 0, i32 1
  %132 = getelementptr inbounds nuw %struct.IRType1, ptr %131, i32 0, i32 0
  %133 = load i8, ptr %132, align 4, !tbaa !11
  %134 = zext i8 %133 to i32
  %135 = and i32 %134, 31
  %136 = icmp eq i32 %135, 5
  %137 = zext i1 %136 to i32
  %138 = load ptr, ptr %5, align 8, !tbaa !4
  %139 = getelementptr inbounds nuw %struct.jit_State, ptr %138, i32 0, i32 0
  %140 = getelementptr inbounds nuw %struct.GCtrace, ptr %139, i32 0, i32 7
  %141 = load ptr, ptr %140, align 8, !tbaa !14
  %142 = load i32, ptr %12, align 4, !tbaa !9
  %143 = zext i32 %142 to i64
  %144 = getelementptr inbounds nuw %union.IRIns, ptr %141, i64 %143
  %145 = getelementptr inbounds nuw %struct.anon.0, ptr %144, i32 0, i32 1
  %146 = getelementptr inbounds nuw %struct.IRType1, ptr %145, i32 0, i32 0
  %147 = load i8, ptr %146, align 4, !tbaa !11
  %148 = zext i8 %147 to i32
  %149 = and i32 %148, 31
  %150 = icmp eq i32 %149, 5
  %151 = zext i1 %150 to i32
  %152 = icmp ne i32 %137, %151
  br i1 %152, label %153, label %154

153:                                              ; preds = %123
  store i32 0, ptr %4, align 4
  store i32 1, ptr %10, align 4
  br label %156

154:                                              ; preds = %123
  br label %155

155:                                              ; preds = %154, %122
  store i32 0, ptr %10, align 4
  br label %156

156:                                              ; preds = %155, %153, %121
  call void @llvm.lifetime.end.p0(i64 4, ptr %12) #5
  call void @llvm.lifetime.end.p0(i64 4, ptr %11) #5
  %157 = load i32, ptr %10, align 4
  switch i32 %157, label %165 [
    i32 0, label %158
  ]

158:                                              ; preds = %156
  br label %159

159:                                              ; preds = %158, %51
  br label %160

160:                                              ; preds = %159
  %161 = load ptr, ptr %9, align 8, !tbaa !32
  %162 = getelementptr inbounds nuw %struct.anon, ptr %161, i32 0, i32 3
  %163 = load i16, ptr %162, align 2, !tbaa !11
  %164 = zext i16 %163 to i32
  store i32 %164, ptr %8, align 4, !tbaa !9
  store i32 0, ptr %10, align 4
  br label %165

165:                                              ; preds = %160, %156, %41
  call void @llvm.lifetime.end.p0(i64 8, ptr %9) #5
  %166 = load i32, ptr %10, align 4
  switch i32 %166, label %213 [
    i32 0, label %167
  ]

167:                                              ; preds = %165
  br label %23, !llvm.loop !73

168:                                              ; preds = %23
  %169 = load ptr, ptr %5, align 8, !tbaa !4
  %170 = getelementptr inbounds nuw %struct.jit_State, ptr %169, i32 0, i32 40
  %171 = load i16, ptr %6, align 2, !tbaa !12
  %172 = zext i16 %171 to i64
  %173 = getelementptr inbounds nuw [101 x i16], ptr %170, i64 0, i64 %172
  %174 = load i16, ptr %173, align 2, !tbaa !12
  %175 = zext i16 %174 to i32
  store i32 %175, ptr %8, align 4, !tbaa !9
  br label %176

176:                                              ; preds = %211, %168
  %177 = load i32, ptr %8, align 4, !tbaa !9
  %178 = load i32, ptr %7, align 4, !tbaa !9
  %179 = icmp ugt i32 %177, %178
  br i1 %179, label %180, label %212

180:                                              ; preds = %176
  call void @llvm.lifetime.start.p0(i64 8, ptr %13) #5
  %181 = load ptr, ptr %5, align 8, !tbaa !4
  %182 = getelementptr inbounds nuw %struct.jit_State, ptr %181, i32 0, i32 0
  %183 = getelementptr inbounds nuw %struct.GCtrace, ptr %182, i32 0, i32 7
  %184 = load ptr, ptr %183, align 8, !tbaa !14
  %185 = load i32, ptr %8, align 4, !tbaa !9
  %186 = zext i32 %185 to i64
  %187 = getelementptr inbounds nuw %union.IRIns, ptr %184, i64 %186
  store ptr %187, ptr %13, align 8, !tbaa !32
  %188 = load ptr, ptr %13, align 8, !tbaa !32
  %189 = getelementptr inbounds nuw %struct.anon, ptr %188, i32 0, i32 0
  %190 = load i16, ptr %189, align 8, !tbaa !11
  %191 = zext i16 %190 to i32
  %192 = load i32, ptr %7, align 4, !tbaa !9
  %193 = icmp eq i32 %191, %192
  br i1 %193, label %194, label %204

194:                                              ; preds = %180
  %195 = load ptr, ptr %13, align 8, !tbaa !32
  %196 = getelementptr inbounds nuw %struct.anon.0, ptr %195, i32 0, i32 1
  %197 = getelementptr inbounds nuw %struct.IRType1, ptr %196, i32 0, i32 0
  %198 = load i8, ptr %197, align 4, !tbaa !11
  %199 = zext i8 %198 to i32
  %200 = and i32 %199, 31
  %201 = icmp eq i32 %200, 0
  %202 = xor i1 %201, true
  %203 = zext i1 %202 to i32
  store i32 %203, ptr %4, align 4
  store i32 1, ptr %10, align 4
  br label %209

204:                                              ; preds = %180
  %205 = load ptr, ptr %13, align 8, !tbaa !32
  %206 = getelementptr inbounds nuw %struct.anon, ptr %205, i32 0, i32 3
  %207 = load i16, ptr %206, align 2, !tbaa !11
  %208 = zext i16 %207 to i32
  store i32 %208, ptr %8, align 4, !tbaa !9
  store i32 0, ptr %10, align 4
  br label %209

209:                                              ; preds = %204, %194
  call void @llvm.lifetime.end.p0(i64 8, ptr %13) #5
  %210 = load i32, ptr %10, align 4
  switch i32 %210, label %213 [
    i32 0, label %211
  ]

211:                                              ; preds = %209
  br label %176, !llvm.loop !74

212:                                              ; preds = %176
  store i32 0, ptr %4, align 4
  store i32 1, ptr %10, align 4
  br label %213

213:                                              ; preds = %212, %209, %165
  call void @llvm.lifetime.end.p0(i64 4, ptr %8) #5
  %214 = load i32, ptr %4, align 4
  ret i32 %214
}