; Function Attrs: nofree norecurse nosync nounwind memory(read, inaccessiblemem: none) uwtable
define hidden range(i32 0, 2) i32 @lj_opt_fwd_wasnonnil(ptr noundef readonly captures(none) %0, i16 noundef zeroext %1, i32 noundef %2) local_unnamed_addr #0 {
  %4 = getelementptr inbounds nuw i8, ptr %0, i64 402
  %5 = zext i16 %1 to i64
  %6 = add nuw nsw i64 %5, 8
  %7 = getelementptr inbounds nuw [101 x i16], ptr %4, i64 0, i64 %6
  %.046.in69 = load i16, ptr %7, align 2, !tbaa !4
  %.04670 = zext i16 %.046.in69 to i32
  %8 = icmp ult i32 %2, %.04670
  br i1 %8, label %.lr.ph, label %._crit_edge

.lr.ph:                                           ; preds = %3
  %9 = getelementptr inbounds nuw i8, ptr %0, i64 32
  %10 = load ptr, ptr %9, align 8, !tbaa !7
  %invariant.gep = getelementptr inbounds nuw i8, ptr %10, i64 2
  %11 = zext nneg i32 %2 to i64
  %12 = getelementptr inbounds nuw %union.IRIns, ptr %10, i64 %11
  %13 = getelementptr inbounds nuw i8, ptr %12, i64 2
  %14 = icmp eq i16 %1, 66
  %invariant.gep72 = getelementptr inbounds nuw i8, ptr %10, i64 4
  %15 = trunc i32 %2 to i16
  br i1 %14, label %.lr.ph.split.us, label %.lr.ph.split

.lr.ph.split.us:                                  ; preds = %.lr.ph, %33
  %.046.in71.us = phi i16 [ %.046.in.us, %33 ], [ %.046.in69, %.lr.ph ]
  %16 = zext i16 %.046.in71.us to i64
  %17 = getelementptr inbounds nuw %union.IRIns, ptr %10, i64 %16
  %18 = load i16, ptr %17, align 8, !tbaa !4
  %19 = zext i16 %18 to i32
  %20 = icmp eq i32 %2, %19
  br i1 %20, label %.split.us, label %21

21:                                               ; preds = %.lr.ph.split.us
  %22 = getelementptr inbounds nuw i8, ptr %17, i64 4
  %23 = load i8, ptr %22, align 4, !tbaa !4
  %24 = and i8 %23, 31
  %25 = icmp eq i8 %24, 0
  br i1 %25, label %26, label %33

26:                                               ; preds = %21
  %27 = zext i16 %18 to i64
  %gep.us = getelementptr inbounds nuw %union.IRIns, ptr %invariant.gep, i64 %27
  %28 = load i16, ptr %gep.us, align 2, !tbaa !4
  %29 = load i16, ptr %13, align 2, !tbaa !4
  %30 = icmp ne i16 %28, %29
  %31 = or i16 %29, %28
  %32 = icmp sgt i16 %31, -1
  %or.cond5.us = and i1 %30, %32
  br i1 %or.cond5.us, label %33, label %.thread59

33:                                               ; preds = %26, %21
  %34 = getelementptr inbounds nuw i8, ptr %17, i64 6
  %.046.in.us = load i16, ptr %34, align 2, !tbaa !4
  %35 = icmp ugt i16 %.046.in.us, %15
  br i1 %35, label %.lr.ph.split.us, label %._crit_edge, !llvm.loop !52

.lr.ph.split:                                     ; preds = %.lr.ph, %70
  %.046.in71 = phi i16 [ %.046.in, %70 ], [ %.046.in69, %.lr.ph ]
  %36 = zext i16 %.046.in71 to i64
  %37 = getelementptr inbounds nuw %union.IRIns, ptr %10, i64 %36
  %38 = load i16, ptr %37, align 8, !tbaa !4
  %39 = zext i16 %38 to i32
  %40 = icmp eq i32 %2, %39
  br i1 %40, label %.split.us, label %43

.split.us:                                        ; preds = %.lr.ph.split, %.lr.ph.split.us
  %41 = phi i64 [ %16, %.lr.ph.split.us ], [ %36, %.lr.ph.split ]
  %42 = getelementptr inbounds nuw %union.IRIns, ptr %10, i64 %41
  br label %.thread59.sink.split

43:                                               ; preds = %.lr.ph.split
  %44 = getelementptr inbounds nuw i8, ptr %37, i64 4
  %45 = load i8, ptr %44, align 4, !tbaa !4
  %46 = and i8 %45, 31
  %47 = icmp eq i8 %46, 0
  br i1 %47, label %48, label %70

48:                                               ; preds = %43
  %49 = zext i16 %38 to i64
  %gep = getelementptr inbounds nuw %union.IRIns, ptr %invariant.gep, i64 %49
  %50 = load i16, ptr %gep, align 2, !tbaa !4
  %51 = load i16, ptr %13, align 2, !tbaa !4
  %52 = zext i16 %50 to i64
  %gep73 = getelementptr inbounds nuw %union.IRIns, ptr %invariant.gep72, i64 %52
  %53 = load i8, ptr %gep73, align 4, !tbaa !4
  %54 = zext i8 %53 to i32
  %55 = zext i16 %51 to i64
  %gep75 = getelementptr inbounds nuw %union.IRIns, ptr %invariant.gep72, i64 %55
  %56 = load i8, ptr %gep75, align 4, !tbaa !4
  %57 = zext i8 %56 to i32
  %58 = xor i32 %57, %54
  %59 = and i32 %58, 31
  %60 = icmp eq i32 %59, 0
  br i1 %60, label %61, label %65

61:                                               ; preds = %48
  %62 = icmp ne i16 %50, %51
  %63 = or i16 %51, %50
  %64 = icmp sgt i16 %63, -1
  %or.cond5 = and i1 %62, %64
  br i1 %or.cond5, label %70, label %.thread59

65:                                               ; preds = %48
  %66 = and i32 %54, 31
  %67 = icmp eq i32 %66, 5
  %68 = and i32 %57, 31
  %69 = icmp ne i32 %68, 5
  %.not55 = xor i1 %67, %69
  br i1 %.not55, label %70, label %.thread59

70:                                               ; preds = %43, %61, %65
  %71 = getelementptr inbounds nuw i8, ptr %37, i64 6
  %.046.in = load i16, ptr %71, align 2, !tbaa !4
  %72 = icmp ugt i16 %.046.in, %15
  br i1 %72, label %.lr.ph.split, label %._crit_edge, !llvm.loop !52

._crit_edge:                                      ; preds = %70, %33, %3
  %73 = getelementptr inbounds nuw [101 x i16], ptr %4, i64 0, i64 %5
  %.248.in76 = load i16, ptr %73, align 2, !tbaa !4
  %.24877 = zext i16 %.248.in76 to i32
  %74 = icmp ult i32 %2, %.24877
  br i1 %74, label %.lr.ph80, label %.thread59

.lr.ph80:                                         ; preds = %._crit_edge
  %75 = getelementptr inbounds nuw i8, ptr %0, i64 32
  %76 = load ptr, ptr %75, align 8, !tbaa !7
  %77 = trunc i32 %2 to i16
  br label %78

78:                                               ; preds = %.lr.ph80, %83
  %.248.in78 = phi i16 [ %.248.in76, %.lr.ph80 ], [ %.248.in, %83 ]
  %79 = zext i16 %.248.in78 to i64
  %80 = getelementptr inbounds nuw %union.IRIns, ptr %76, i64 %79
  %81 = load i16, ptr %80, align 8, !tbaa !4
  %82 = zext i16 %81 to i32
  %.not = icmp eq i32 %2, %82
  br i1 %.not, label %.thread59.sink.split, label %83

83:                                               ; preds = %78
  %84 = getelementptr inbounds nuw i8, ptr %80, i64 6
  %.248.in = load i16, ptr %84, align 2, !tbaa !4
  %85 = icmp ugt i16 %.248.in, %77
  br i1 %85, label %78, label %.thread59

.thread59.sink.split:                             ; preds = %78, %.split.us
  %.sink104 = phi ptr [ %42, %.split.us ], [ %80, %78 ]
  %86 = getelementptr inbounds nuw i8, ptr %.sink104, i64 4
  %87 = load i8, ptr %86, align 4, !tbaa !4
  %88 = and i8 %87, 31
  %89 = icmp ne i8 %88, 0
  %90 = zext i1 %89 to i32
  br label %.thread59

.thread59:                                        ; preds = %61, %65, %26, %83, %.thread59.sink.split, %._crit_edge
  %.4.shrunk = phi i32 [ 0, %._crit_edge ], [ %90, %.thread59.sink.split ], [ 0, %83 ], [ 0, %26 ], [ 0, %65 ], [ 0, %61 ]
  ret i32 %.4.shrunk
}